; ModuleID = '17/1340.c'
source_filename = "17/1340.c"
target datalayout = "e-m:e-p270:32:32-p271:32:32-p272:64:64-i64:64-f80:128-n8:16:32:64-S128"
target triple = "x86_64-pc-linux-gnu"

%struct._Parenthesis = type { i8, i32 }

; Function Attrs: noinline nounwind uwtable
define dso_local i32 @main() #0 {
  %1 = alloca i32, align 4
  %2 = alloca [100 x %struct._Parenthesis], align 16
  %3 = alloca [101 x i8], align 16
  %4 = alloca i32, align 4
  %5 = alloca i32, align 4
  store i32 0, i32* %1, align 4
  br label %6

6:                                                ; preds = %90, %0
  %7 = getelementptr inbounds [101 x i8], [101 x i8]* %3, i64 0, i64 0
  %8 = call i32 (i8*, ...) bitcast (i32 (...)* @gets to i32 (i8*, ...)*)(i8* %7)
  %9 = icmp ne i32 %8, 0
  br i1 %9, label %10, label %93

10:                                               ; preds = %6
  store i32 0, i32* %5, align 4
  %11 = getelementptr inbounds [101 x i8], [101 x i8]* %3, i64 0, i64 0
  %12 = call i32 @puts(i8* %11)
  store i32 0, i32* %4, align 4
  br label %13

13:                                               ; preds = %71, %10
  %14 = load i32, i32* %4, align 4
  %15 = sext i32 %14 to i64
  %16 = getelementptr inbounds [101 x i8], [101 x i8]* %3, i64 0, i64 %15
  %17 = load i8, i8* %16, align 1
  %18 = icmp ne i8 %17, 0
  br i1 %18, label %19, label %74

19:                                               ; preds = %13
  %20 = load i32, i32* %4, align 4
  %21 = sext i32 %20 to i64
  %22 = getelementptr inbounds [101 x i8], [101 x i8]* %3, i64 0, i64 %21
  %23 = load i8, i8* %22, align 1
  %24 = sext i8 %23 to i32
  %25 = icmp eq i32 %24, 40
  br i1 %25, label %26, label %38

26:                                               ; preds = %19
  %27 = load i32, i32* %5, align 4
  %28 = sext i32 %27 to i64
  %29 = getelementptr inbounds [100 x %struct._Parenthesis], [100 x %struct._Parenthesis]* %2, i64 0, i64 %28
  %30 = getelementptr inbounds %struct._Parenthesis, %struct._Parenthesis* %29, i32 0, i32 0
  store i8 40, i8* %30, align 8
  %31 = load i32, i32* %4, align 4
  %32 = load i32, i32* %5, align 4
  %33 = sext i32 %32 to i64
  %34 = getelementptr inbounds [100 x %struct._Parenthesis], [100 x %struct._Parenthesis]* %2, i64 0, i64 %33
  %35 = getelementptr inbounds %struct._Parenthesis, %struct._Parenthesis* %34, i32 0, i32 1
  store i32 %31, i32* %35, align 4
  %36 = load i32, i32* %5, align 4
  %37 = add nsw i32 %36, 1
  store i32 %37, i32* %5, align 4
  br label %70

38:                                               ; preds = %19
  %39 = load i32, i32* %4, align 4
  %40 = sext i32 %39 to i64
  %41 = getelementptr inbounds [101 x i8], [101 x i8]* %3, i64 0, i64 %40
  %42 = load i8, i8* %41, align 1
  %43 = sext i8 %42 to i32
  %44 = icmp eq i32 %43, 41
  br i1 %44, label %45, label %65

45:                                               ; preds = %38
  %46 = load i32, i32* %5, align 4
  %47 = icmp eq i32 %46, 0
  br i1 %47, label %48, label %52

48:                                               ; preds = %45
  %49 = load i32, i32* %4, align 4
  %50 = sext i32 %49 to i64
  %51 = getelementptr inbounds [101 x i8], [101 x i8]* %3, i64 0, i64 %50
  store i8 63, i8* %51, align 1
  br label %64

52:                                               ; preds = %45
  %53 = load i32, i32* %4, align 4
  %54 = sext i32 %53 to i64
  %55 = getelementptr inbounds [101 x i8], [101 x i8]* %3, i64 0, i64 %54
  store i8 32, i8* %55, align 1
  %56 = load i32, i32* %5, align 4
  %57 = add nsw i32 %56, -1
  store i32 %57, i32* %5, align 4
  %58 = sext i32 %57 to i64
  %59 = getelementptr inbounds [100 x %struct._Parenthesis], [100 x %struct._Parenthesis]* %2, i64 0, i64 %58
  %60 = getelementptr inbounds %struct._Parenthesis, %struct._Parenthesis* %59, i32 0, i32 1
  %61 = load i32, i32* %60, align 4
  %62 = sext i32 %61 to i64
  %63 = getelementptr inbounds [101 x i8], [101 x i8]* %3, i64 0, i64 %62
  store i8 32, i8* %63, align 1
  br label %64

64:                                               ; preds = %52, %48
  br label %69

65:                                               ; preds = %38
  %66 = load i32, i32* %4, align 4
  %67 = sext i32 %66 to i64
  %68 = getelementptr inbounds [101 x i8], [101 x i8]* %3, i64 0, i64 %67
  store i8 32, i8* %68, align 1
  br label %69

69:                                               ; preds = %65, %64
  br label %70

70:                                               ; preds = %69, %26
  br label %71

71:                                               ; preds = %70
  %72 = load i32, i32* %4, align 4
  %73 = add nsw i32 %72, 1
  store i32 %73, i32* %4, align 4
  br label %13

74:                                               ; preds = %13
  store i32 0, i32* %4, align 4
  br label %75

75:                                               ; preds = %87, %74
  %76 = load i32, i32* %4, align 4
  %77 = load i32, i32* %5, align 4
  %78 = icmp slt i32 %76, %77
  br i1 %78, label %79, label %90

79:                                               ; preds = %75
  %80 = load i32, i32* %4, align 4
  %81 = sext i32 %80 to i64
  %82 = getelementptr inbounds [100 x %struct._Parenthesis], [100 x %struct._Parenthesis]* %2, i64 0, i64 %81
  %83 = getelementptr inbounds %struct._Parenthesis, %struct._Parenthesis* %82, i32 0, i32 1
  %84 = load i32, i32* %83, align 4
  %85 = sext i32 %84 to i64
  %86 = getelementptr inbounds [101 x i8], [101 x i8]* %3, i64 0, i64 %85
  store i8 36, i8* %86, align 1
  br label %87

87:                                               ; preds = %79
  %88 = load i32, i32* %4, align 4
  %89 = add nsw i32 %88, 1
  store i32 %89, i32* %4, align 4
  br label %75

90:                                               ; preds = %75
  %91 = getelementptr inbounds [101 x i8], [101 x i8]* %3, i64 0, i64 0
  %92 = call i32 @puts(i8* %91)
  br label %6

93:                                               ; preds = %6
  ret i32 0
}

declare dso_local i32 @gets(...) #1

declare dso_local i32 @puts(i8*) #1


!llvm.module.flags = !{!0}
!llvm.ident = !{!1}

!0 = !{i32 1, !"wchar_size", i32 4}
!1 = !{!"clang version 10.0.0-4ubuntu1 "}
